target datalayout = "e-m:e-p270:32:32-p271:32:32-p272:64:64-i64:64-i128:128-f80:128-n8:16:32:64-S128"
target triple = "x86_64-pc-linux-gnu"

%struct.rocksdb_optimistictransaction_options_t = type { %"struct.rocksdb::OptimisticTransactionOptions" }
%"struct.rocksdb::OptimisticTransactionOptions" = type { i8, ptr }

; Function Attrs: inlinehint mustprogress uwtable
define linkonce_odr void @_ZN7rocksdb28OptimisticTransactionOptionsC2Ev(ptr noundef nonnull align 8 dereferenceable(16) %0) unnamed_addr #6 comdat align 2 {
  %2 = alloca ptr, align 8
  store ptr %0, ptr %2, align 8, !tbaa !2306
  %3 = load ptr, ptr %2, align 8
  %4 = getelementptr inbounds nuw %"struct.rocksdb::OptimisticTransactionOptions", ptr %3, i32 0, i32 0
  store i8 0, ptr %4, align 8, !tbaa !2308
  %5 = getelementptr inbounds nuw %"struct.rocksdb::OptimisticTransactionOptions", ptr %3, i32 0, i32 1
  %6 = call noundef ptr @_ZN7rocksdb18BytewiseComparatorEv()
  store ptr %6, ptr %5, align 8, !tbaa !2309
  ret void
}

; Function Attrs: inlinehint mustprogress uwtable
define linkonce_odr void @_ZN39rocksdb_optimistictransaction_options_tC2Ev(ptr noundef nonnull align 8 dereferenceable(16) %0) unnamed_addr #6 comdat align 2 {
  %2 = alloca ptr, align 8
  store ptr %0, ptr %2, align 8, !tbaa !1238
  %3 = load ptr, ptr %2, align 8
  %4 = getelementptr inbounds nuw %struct.rocksdb_optimistictransaction_options_t, ptr %3, i32 0, i32 0
  call void @_ZN7rocksdb28OptimisticTransactionOptionsC2Ev(ptr noundef nonnull align 8 dereferenceable(16) %4)
  ret void
}

; Function Attrs: mustprogress uwtable
define ptr @rocksdb_optimistictransaction_options_create() #0 personality ptr @__gxx_personality_v0 {
  %1 = alloca ptr, align 8
  %2 = alloca i32, align 4
  %3 = call noalias noundef nonnull ptr @_Znwm(i64 noundef 16) #25
  invoke void @_ZN39rocksdb_optimistictransaction_options_tC2Ev(ptr noundef nonnull align 8 dereferenceable(16) %3)
          to label %4 unwind label %5

4:                                                ; preds = %0
  ret ptr %3

5:                                                ; preds = %0
  %6 = landingpad { ptr, i32 }
          cleanup
  %7 = extractvalue { ptr, i32 } %6, 0
  store ptr %7, ptr %1, align 8
  %8 = extractvalue { ptr, i32 } %6, 1
  store i32 %8, ptr %2, align 4
  call void @_ZdlPvm(ptr noundef %3, i64 noundef 16) #28
  br label %9

9:                                                ; preds = %5
  %10 = load ptr, ptr %1, align 8
  %11 = load i32, ptr %2, align 4
  %12 = insertvalue { ptr, i32 } poison, ptr %10, 0
  %13 = insertvalue { ptr, i32 } %12, i32 %11, 1
  resume { ptr, i32 } %13
}