; Function Attrs: mustprogress uwtable
define noundef nonnull ptr @rocksdb_optimistictransaction_options_create() local_unnamed_addr #0 personality ptr @__gxx_personality_v0 {
  %1 = tail call noalias noundef nonnull dereferenceable(16) ptr @_Znwm(i64 noundef 16) #46
  store i8 0, ptr %1, align 8, !tbaa !1202
  %2 = invoke noundef ptr @_ZN7rocksdb18BytewiseComparatorEv()
          to label %3 unwind label %5

3:                                                ; preds = %0
  %4 = getelementptr inbounds nuw i8, ptr %1, i64 8
  store ptr %2, ptr %4, align 8, !tbaa !1204
  ret ptr %1

5:                                                ; preds = %0
  %6 = landingpad { ptr, i32 }
          cleanup
  tail call void @_ZdlPvm(ptr noundef nonnull %1, i64 noundef 16) #45
  resume { ptr, i32 } %6
}